; Function Attrs: mustprogress uwtable
define dso_local void @_ZN4pbrt22FormattingParserTarget6OptionERKNSt7__cxx1112basic_stringIcSt11char_traitsIcESaIcEEES8_NS_7FileLocE(ptr noundef nonnull align 8 dereferenceable(216) %this, ptr noundef nonnull align 8 dereferenceable(32) %name, ptr noundef nonnull align 8 dereferenceable(32) %value, ptr nocapture noundef readnone byval(%"struct.pbrt::FileLoc") align 8 %loc) unnamed_addr #3 align 2 personality ptr @__gxx_personality_v0 {
entry:
  %s.i = alloca %"class.std::__cxx11::basic_string", align 8
  %nName = alloca %"class.std::__cxx11::basic_string", align 8
  %ref.tmp = alloca %"class.std::__cxx11::basic_string", align 8
  call void @_ZNSt7__cxx1112basic_stringIcSt11char_traitsIcESaIcEEC1Ev(ptr noundef nonnull align 8 dereferenceable(32) %nName) #32
  %call.i = call ptr @_ZNKSt7__cxx1112basic_stringIcSt11char_traitsIcESaIcEE5beginEv(ptr noundef nonnull align 8 dereferenceable(32) %name) #32
  %call1.i = call ptr @_ZNKSt7__cxx1112basic_stringIcSt11char_traitsIcESaIcEE3endEv(ptr noundef nonnull align 8 dereferenceable(32) %name) #32
  %cmp.i.not6.i = icmp eq ptr %call.i, %call1.i
  br i1 %cmp.i.not6.i, label %_ZN4pbrt12normalizeArgERKNSt7__cxx1112basic_stringIcSt11char_traitsIcESaIcEEE.exit, label %for.body.i

for.body.i:                                       ; preds = %entry, %for.inc.i
  %__begin1.sroa.0.07.i = phi ptr [ %incdec.ptr.i.i, %for.inc.i ], [ %call.i, %entry ]
  %0 = load i8, ptr %__begin1.sroa.0.07.i, align 1
  switch i8 %0, label %if.then.i [
    i8 95, label %for.inc.i
    i8 45, label %for.inc.i
  ]

if.then.i:                                        ; preds = %for.body.i
  %conv.i = zext i8 %0 to i32
  %call8.i = call i32 @tolower(i32 noundef %conv.i) #36
  %conv9.i = trunc i32 %call8.i to i8
  %call10.i = invoke noundef nonnull align 8 dereferenceable(32) ptr @_ZNSt7__cxx1112basic_stringIcSt11char_traitsIcESaIcEEpLEc(ptr noundef nonnull align 8 dereferenceable(32) %nName, i8 noundef signext %conv9.i)
          to label %for.inc.i unwind label %lpad.i

common.resume:                                    ; preds = %lpad, %lpad.i.i, %lpad.i
  %common.resume.op = phi { ptr, i32 } [ %1, %lpad.i ], [ %2, %lpad.i.i ], [ %4, %lpad ]
  call void @_ZNSt7__cxx1112basic_stringIcSt11char_traitsIcESaIcEED1Ev(ptr noundef nonnull align 8 dereferenceable(32) %nName) #32
  resume { ptr, i32 } %common.resume.op

lpad.i:                                           ; preds = %if.then.i
  %1 = landingpad { ptr, i32 }
          cleanup
  br label %common.resume

for.inc.i:                                        ; preds = %if.then.i, %for.body.i, %for.body.i
  %incdec.ptr.i.i = getelementptr inbounds i8, ptr %__begin1.sroa.0.07.i, i64 1
  %cmp.i.not.i = icmp eq ptr %incdec.ptr.i.i, %call1.i
  br i1 %cmp.i.not.i, label %_ZN4pbrt12normalizeArgERKNSt7__cxx1112basic_stringIcSt11char_traitsIcESaIcEEE.exit, label %for.body.i

_ZN4pbrt12normalizeArgERKNSt7__cxx1112basic_stringIcSt11char_traitsIcESaIcEEE.exit: ; preds = %for.inc.i, %entry
  invoke void @_ZNK4pbrt22FormattingParserTarget6indentB5cxx11Ei(ptr nonnull sret(%"class.std::__cxx11::basic_string") align 8 %ref.tmp, ptr noundef nonnull align 8 dereferenceable(216) %this, i32 noundef 0)
          to label %invoke.cont unwind label %lpad

invoke.cont:                                      ; preds = %_ZN4pbrt12normalizeArgERKNSt7__cxx1112basic_stringIcSt11char_traitsIcESaIcEEE.exit
  call void @llvm.lifetime.start.p0(i64 32, ptr nonnull %s.i)
  call void @_ZNSt7__cxx1112basic_stringIcSt11char_traitsIcESaIcEEC1Ev(ptr noundef nonnull align 8 dereferenceable(32) %s.i) #32
  invoke void @_ZN4pbrt6detail21stringPrintfRecursiveINSt7__cxx1112basic_stringIcSt11char_traitsIcESaIcEEEJRKS7_S9_EEEvPS7_PKcOT_DpOT0_(ptr noundef nonnull %s.i, ptr noundef nonnull @.str.87, ptr noundef nonnull align 8 dereferenceable(32) %ref.tmp, ptr noundef nonnull align 8 dereferenceable(32) %name, ptr noundef nonnull align 8 dereferenceable(32) %value)
          to label %invoke.cont3 unwind label %lpad.i.i

lpad.i.i:                                         ; preds = %invoke.cont
  %2 = landingpad { ptr, i32 }
          cleanup
  call void @_ZNSt7__cxx1112basic_stringIcSt11char_traitsIcESaIcEED1Ev(ptr noundef nonnull align 8 dereferenceable(32) %s.i) #32
  call void @_ZNSt7__cxx1112basic_stringIcSt11char_traitsIcESaIcEED1Ev(ptr noundef nonnull align 8 dereferenceable(32) %ref.tmp) #32
  br label %common.resume

invoke.cont3:                                     ; preds = %invoke.cont
  %call.i3 = call noundef ptr @_ZNKSt7__cxx1112basic_stringIcSt11char_traitsIcESaIcEE5c_strEv(ptr noundef nonnull align 8 dereferenceable(32) %s.i) #32
  %3 = load ptr, ptr @stdout, align 8
  %call5.i = call i32 @fputs(ptr noundef %call.i3, ptr noundef %3)
  call void @_ZNSt7__cxx1112basic_stringIcSt11char_traitsIcESaIcEED1Ev(ptr noundef nonnull align 8 dereferenceable(32) %s.i) #32
  call void @llvm.lifetime.end.p0(i64 32, ptr nonnull %s.i)
  call void @_ZNSt7__cxx1112basic_stringIcSt11char_traitsIcESaIcEED1Ev(ptr noundef nonnull align 8 dereferenceable(32) %ref.tmp) #32
  call void @_ZNSt7__cxx1112basic_stringIcSt11char_traitsIcESaIcEED1Ev(ptr noundef nonnull align 8 dereferenceable(32) %nName) #32
  ret void

lpad:                                             ; preds = %_ZN4pbrt12normalizeArgERKNSt7__cxx1112basic_stringIcSt11char_traitsIcESaIcEEE.exit
  %4 = landingpad { ptr, i32 }
          cleanup
  br label %common.resume
}